target datalayout = "e-m:e-p270:32:32-p271:32:32-p272:64:64-i64:64-i128:128-f80:128-n8:16:32:64-S128"
target triple = "x86_64-pc-linux-gnu"

@proto_register_enttec.ett = internal global [1 x ptr] [ptr @ett_enttec], align 8
@.str.43 = private unnamed_addr constant [7 x i8] c"ENTTEC\00", align 1
@.str.44 = private unnamed_addr constant [7 x i8] c"enttec\00", align 1
@proto_enttec = internal global i32 0, align 4
@.str.45 = private unnamed_addr constant [11 x i8] c"enttec.udp\00", align 1
@enttec_udp_handle = internal global ptr null, align 8
@.str.46 = private unnamed_addr constant [11 x i8] c"enttec.tcp\00", align 1
@enttec_tcp_handle = internal global ptr null, align 8
@.str.47 = private unnamed_addr constant [23 x i8] c"dmx_disp_chan_val_type\00", align 1
@.str.48 = private unnamed_addr constant [31 x i8] c"DMX Display channel value type\00", align 1
@.str.49 = private unnamed_addr constant [33 x i8] c"The way DMX values are displayed\00", align 1
@global_disp_chan_val_type = internal global i32 0, align 4
@.str.50 = private unnamed_addr constant [22 x i8] c"dmx_disp_chan_nr_type\00", align 1
@.str.51 = private unnamed_addr constant [29 x i8] c"DMX Display channel nr. type\00", align 1
@.str.52 = private unnamed_addr constant [42 x i8] c"The way DMX channel numbers are displayed\00", align 1
@global_disp_chan_nr_type = internal global i32 0, align 4
@.str.53 = private unnamed_addr constant [19 x i8] c"dmx_disp_col_count\00", align 1
@.str.54 = private unnamed_addr constant [25 x i8] c"DMX Display Column Count\00", align 1
@.str.55 = private unnamed_addr constant [42 x i8] c"The number of columns for the DMX display\00", align 1
@global_disp_col_count = internal global i32 16, align 4

; Function Attrs: null_pointer_is_valid sspstrong uwtable
define hidden void @proto_register_enttec() #0 {
  %1 = alloca ptr, align 8
  call void @llvm.lifetime.start.p0(i64 8, ptr %1) #6
  %2 = call i32 @proto_register_protocol(ptr noundef @.str.43, ptr noundef @.str.43, ptr noundef @.str.44)
  store i32 %2, ptr @proto_enttec, align 4
  %3 = load i32, ptr @proto_enttec, align 4
  call void @proto_register_field_array(i32 noundef %3, ptr noundef @proto_register_enttec.hf, i32 noundef 17)
  call void @proto_register_subtree_array(ptr noundef @proto_register_enttec.ett, i32 noundef 1)
  %4 = load i32, ptr @proto_enttec, align 4
  %5 = call ptr @register_dissector(ptr noundef @.str.45, ptr noundef @dissect_enttec_udp, i32 noundef %4)
  store ptr %5, ptr @enttec_udp_handle, align 8
  %6 = load i32, ptr @proto_enttec, align 4
  %7 = call ptr @register_dissector(ptr noundef @.str.46, ptr noundef @dissect_enttec_tcp, i32 noundef %6)
  store ptr %7, ptr @enttec_tcp_handle, align 8
  %8 = load i32, ptr @proto_enttec, align 4
  %9 = call ptr @prefs_register_protocol(i32 noundef %8, ptr noundef null)
  store ptr %9, ptr %1, align 8
  %10 = load ptr, ptr %1, align 8
  call void @prefs_register_enum_preference(ptr noundef %10, ptr noundef @.str.47, ptr noundef @.str.48, ptr noundef @.str.49, ptr noundef @global_disp_chan_val_type, ptr noundef @proto_register_enttec.disp_chan_val_types, i1 noundef zeroext false)
  %11 = load ptr, ptr %1, align 8
  call void @prefs_register_enum_preference(ptr noundef %11, ptr noundef @.str.50, ptr noundef @.str.51, ptr noundef @.str.52, ptr noundef @global_disp_chan_nr_type, ptr noundef @proto_register_enttec.disp_chan_nr_types, i1 noundef zeroext false)
  %12 = load ptr, ptr %1, align 8
  call void @prefs_register_enum_preference(ptr noundef %12, ptr noundef @.str.53, ptr noundef @.str.54, ptr noundef @.str.55, ptr noundef @global_disp_col_count, ptr noundef @proto_register_enttec.col_count, i1 noundef zeroext false)
  call void @llvm.lifetime.end.p0(i64 8, ptr %1) #6
  ret void
}