; Function Attrs: null_pointer_is_valid sspstrong uwtable
define hidden void @proto_register_enttec() local_unnamed_addr #0 {
  %1 = tail call i32 @proto_register_protocol(ptr noundef nonnull @.str.43, ptr noundef nonnull @.str.43, ptr noundef nonnull @.str.44)
  store i32 %1, ptr @proto_enttec, align 4
  tail call void @proto_register_field_array(i32 noundef %1, ptr noundef nonnull @proto_register_enttec.hf, i32 noundef 17)
  tail call void @proto_register_subtree_array(ptr noundef nonnull @proto_register_enttec.ett, i32 noundef 1)
  %2 = load i32, ptr @proto_enttec, align 4
  %3 = tail call ptr @register_dissector(ptr noundef nonnull @.str.45, ptr noundef nonnull @dissect_enttec_udp, i32 noundef %2)
  store ptr %3, ptr @enttec_udp_handle, align 8
  %4 = load i32, ptr @proto_enttec, align 4
  %5 = tail call ptr @register_dissector(ptr noundef nonnull @.str.46, ptr noundef nonnull @dissect_enttec_tcp, i32 noundef %4)
  store ptr %5, ptr @enttec_tcp_handle, align 8
  %6 = load i32, ptr @proto_enttec, align 4
  %7 = tail call ptr @prefs_register_protocol(i32 noundef %6, ptr noundef null)
  tail call void @prefs_register_enum_preference(ptr noundef %7, ptr noundef nonnull @.str.47, ptr noundef nonnull @.str.48, ptr noundef nonnull @.str.49, ptr noundef nonnull @global_disp_chan_val_type, ptr noundef nonnull @proto_register_enttec.disp_chan_val_types, i1 noundef zeroext false)
  tail call void @prefs_register_enum_preference(ptr noundef %7, ptr noundef nonnull @.str.50, ptr noundef nonnull @.str.51, ptr noundef nonnull @.str.52, ptr noundef nonnull @global_disp_chan_nr_type, ptr noundef nonnull @proto_register_enttec.disp_chan_nr_types, i1 noundef zeroext false)
  tail call void @prefs_register_enum_preference(ptr noundef %7, ptr noundef nonnull @.str.53, ptr noundef nonnull @.str.54, ptr noundef nonnull @.str.55, ptr noundef nonnull @global_disp_col_count, ptr noundef nonnull @proto_register_enttec.col_count, i1 noundef zeroext false)
  ret void
}